target datalayout = "e-m:e-p270:32:32-p271:32:32-p272:64:64-i64:64-i128:128-f80:128-n8:16:32:64-S128"
target triple = "x86_64-pc-linux-gnu"

%struct.AVBPrint = type { ptr, i32, i32, i32, [1 x i8], [1000 x i8] }
%struct.AVCodecContext = type { ptr, i32, i32, ptr, i32, i32, ptr, ptr, ptr, i64, i32, i32, ptr, i32, %struct.AVRational, %struct.AVRational, %struct.AVRational, i32, i32, i32, i32, i32, %struct.AVRational, i32, i32, i32, i32, i32, i32, i32, i32, i32, i32, i32, ptr, ptr, i32, float, float, float, float, float, float, float, float, float, i32, i32, i32, i32, i32, i32, i32, i32, i32, i32, i32, i32, ptr, ptr, ptr, i32, i32, i32, i32, i32, i32, i32, i32, i32, i32, %struct.AVChannelLayout, i32, i32, i32, i32, i32, i32, i32, i32, ptr, i32, i32, i32, float, float, i32, i32, i32, i32, i32, ptr, i64, i64, float, float, i32, i32, ptr, ptr, i32, i32, i32, i32, i32, ptr, ptr, ptr, ptr, i32, i32, [8 x i64], i32, i32, i32, i32, i32, i32, i32, ptr, ptr, i32, i32, i32, i32, i32, i32, i32, i32, i32, i32, ptr, ptr, i32, i32, ptr, ptr, ptr, ptr, i32, i32, i64, i32, i32, i64, ptr, i64, ptr, i32, ptr, i32 }
%struct.AVRational = type { i32, i32 }
%struct.AVChannelLayout = type { i32, i32, %union.anon.1, ptr }
%union.anon.1 = type { i64 }
%struct.DVDSubtitleContext = type { ptr, [16 x i32], ptr, i32 }

@dvdsub_init.default_palette = internal constant [16 x i32] [i32 0, i32 255, i32 65280, i32 16711680, i32 16776960, i32 16711935, i32 65535, i32 16777215, i32 8421376, i32 8421631, i32 8388736, i32 8454016, i32 32896, i32 16744576, i32 5592405, i32 11184810], align 16
@.str.9 = private unnamed_addr constant [13 x i8] c"size: %dx%d\0A\00", align 1
@.str.10 = private unnamed_addr constant [9 x i8] c"palette:\00", align 1
@.str.11 = private unnamed_addr constant [8 x i8] c" %06x%c\00", align 1

; Function Attrs: inlinehint nounwind uwtable
define internal i32 @av_bprint_is_complete(ptr noundef %0) #5 {
  %2 = alloca ptr, align 8
  store ptr %0, ptr %2, align 8, !tbaa !67
  %3 = load ptr, ptr %2, align 8, !tbaa !67
  %4 = getelementptr inbounds nuw %struct.AVBPrint, ptr %3, i32 0, i32 1
  %5 = load i32, ptr %4, align 8, !tbaa !70
  %6 = load ptr, ptr %2, align 8, !tbaa !67
  %7 = getelementptr inbounds nuw %struct.AVBPrint, ptr %6, i32 0, i32 2
  %8 = load i32, ptr %7, align 4, !tbaa !73
  %9 = icmp ult i32 %5, %8
  %10 = zext i1 %9 to i32
  ret i32 %10
}

; Function Attrs: nounwind uwtable
define internal i32 @bprint_to_extradata(ptr noundef %0, ptr noundef %1) #1 {
  %3 = alloca i32, align 4
  %4 = alloca ptr, align 8
  %5 = alloca ptr, align 8
  %6 = alloca i32, align 4
  %7 = alloca ptr, align 8
  %8 = alloca i32, align 4
  store ptr %0, ptr %4, align 8, !tbaa !4
  store ptr %1, ptr %5, align 8, !tbaa !67
  call void @llvm.lifetime.start.p0(i64 4, ptr %6) #10
  call void @llvm.lifetime.start.p0(i64 8, ptr %7) #10
  %9 = load ptr, ptr %5, align 8, !tbaa !67
  %10 = call i32 @av_bprint_finalize(ptr noundef %9, ptr noundef %7)
  store i32 %10, ptr %6, align 4, !tbaa !34
  %11 = load i32, ptr %6, align 4, !tbaa !34
  %12 = icmp slt i32 %11, 0
  br i1 %12, label %13, label %15

13:                                               ; preds = %2
  %14 = load i32, ptr %6, align 4, !tbaa !34
  store i32 %14, ptr %3, align 4
  store i32 1, ptr %8, align 4
  br label %30

15:                                               ; preds = %2
  %16 = load ptr, ptr %5, align 8, !tbaa !67
  %17 = call i32 @av_bprint_is_complete(ptr noundef %16)
  %18 = icmp ne i32 %17, 0
  br i1 %18, label %21, label %19

19:                                               ; preds = %15
  %20 = load ptr, ptr %7, align 8, !tbaa !37
  call void @av_free(ptr noundef %20)
  store i32 -12, ptr %3, align 4
  store i32 1, ptr %8, align 4
  br label %30

21:                                               ; preds = %15
  %22 = load ptr, ptr %7, align 8, !tbaa !37
  %23 = load ptr, ptr %4, align 8, !tbaa !4
  %24 = getelementptr inbounds nuw %struct.AVCodecContext, ptr %23, i32 0, i32 12
  store ptr %22, ptr %24, align 8, !tbaa !69
  %25 = load ptr, ptr %5, align 8, !tbaa !67
  %26 = getelementptr inbounds nuw %struct.AVBPrint, ptr %25, i32 0, i32 1
  %27 = load i32, ptr %26, align 8, !tbaa !70
  %28 = load ptr, ptr %4, align 8, !tbaa !4
  %29 = getelementptr inbounds nuw %struct.AVCodecContext, ptr %28, i32 0, i32 13
  store i32 %27, ptr %29, align 8, !tbaa !72
  store i32 0, ptr %3, align 4
  store i32 1, ptr %8, align 4
  br label %30

30:                                               ; preds = %21, %19, %13
  call void @llvm.lifetime.end.p0(i64 8, ptr %7) #10
  call void @llvm.lifetime.end.p0(i64 4, ptr %6) #10
  %31 = load i32, ptr %3, align 4
  ret i32 %31
}

; Function Attrs: cold nounwind optsize uwtable
define internal i32 @dvdsub_init(ptr noundef %0) #0 {
  %2 = alloca i32, align 4
  %3 = alloca ptr, align 8
  %4 = alloca ptr, align 8
  %5 = alloca %struct.AVBPrint, align 8
  %6 = alloca i32, align 4
  %7 = alloca i32, align 4
  %8 = alloca i32, align 4
  store ptr %0, ptr %3, align 8, !tbaa !4
  call void @llvm.lifetime.start.p0(i64 8, ptr %4) #10
  %9 = load ptr, ptr %3, align 8, !tbaa !4
  %10 = getelementptr inbounds nuw %struct.AVCodecContext, ptr %9, i32 0, i32 6
  %11 = load ptr, ptr %10, align 8, !tbaa !9
  store ptr %11, ptr %4, align 8, !tbaa !29
  call void @llvm.lifetime.start.p0(i64 1024, ptr %5) #10
  call void @llvm.lifetime.start.p0(i64 4, ptr %6) #10
  call void @llvm.lifetime.start.p0(i64 4, ptr %7) #10
  br label %12

12:                                               ; preds = %1
  br label %13

13:                                               ; preds = %12
  br label %14

14:                                               ; preds = %13
  %15 = load ptr, ptr %4, align 8, !tbaa !29
  %16 = getelementptr inbounds nuw %struct.DVDSubtitleContext, ptr %15, i32 0, i32 2
  %17 = load ptr, ptr %16, align 8, !tbaa !30
  %18 = icmp ne ptr %17, null
  br i1 %18, label %19, label %26

19:                                               ; preds = %14
  %20 = load ptr, ptr %4, align 8, !tbaa !29
  %21 = getelementptr inbounds nuw %struct.DVDSubtitleContext, ptr %20, i32 0, i32 1
  %22 = getelementptr inbounds [16 x i32], ptr %21, i64 0, i64 0
  %23 = load ptr, ptr %4, align 8, !tbaa !29
  %24 = getelementptr inbounds nuw %struct.DVDSubtitleContext, ptr %23, i32 0, i32 2
  %25 = load ptr, ptr %24, align 8, !tbaa !30
  call void @ff_dvdsub_parse_palette(ptr noundef %22, ptr noundef %25)
  br label %30

26:                                               ; preds = %14
  %27 = load ptr, ptr %4, align 8, !tbaa !29
  %28 = getelementptr inbounds nuw %struct.DVDSubtitleContext, ptr %27, i32 0, i32 1
  %29 = getelementptr inbounds [16 x i32], ptr %28, i64 0, i64 0
  call void @llvm.memcpy.p0.p0.i64(ptr align 8 %29, ptr align 16 @dvdsub_init.default_palette, i64 64, i1 false)
  br label %30

30:                                               ; preds = %26, %19
  call void @av_bprint_init(ptr noundef %5, i32 noundef 0, i32 noundef 1)
  %31 = load ptr, ptr %3, align 8, !tbaa !4
  %32 = getelementptr inbounds nuw %struct.AVCodecContext, ptr %31, i32 0, i32 18
  %33 = load i32, ptr %32, align 8, !tbaa !32
  %34 = icmp ne i32 %33, 0
  br i1 %34, label %35, label %47

35:                                               ; preds = %30
  %36 = load ptr, ptr %3, align 8, !tbaa !4
  %37 = getelementptr inbounds nuw %struct.AVCodecContext, ptr %36, i32 0, i32 19
  %38 = load i32, ptr %37, align 4, !tbaa !33
  %39 = icmp ne i32 %38, 0
  br i1 %39, label %40, label %47

40:                                               ; preds = %35
  %41 = load ptr, ptr %3, align 8, !tbaa !4
  %42 = getelementptr inbounds nuw %struct.AVCodecContext, ptr %41, i32 0, i32 18
  %43 = load i32, ptr %42, align 8, !tbaa !32
  %44 = load ptr, ptr %3, align 8, !tbaa !4
  %45 = getelementptr inbounds nuw %struct.AVCodecContext, ptr %44, i32 0, i32 19
  %46 = load i32, ptr %45, align 4, !tbaa !33
  call void (ptr, ptr, ...) @av_bprintf(ptr noundef %5, ptr noundef @.str.9, i32 noundef %43, i32 noundef %46)
  br label %47

47:                                               ; preds = %40, %35, %30
  call void (ptr, ptr, ...) @av_bprintf(ptr noundef %5, ptr noundef @.str.10)
  store i32 0, ptr %6, align 4, !tbaa !34
  br label %48

48:                                               ; preds = %62, %47
  %49 = load i32, ptr %6, align 4, !tbaa !34
  %50 = icmp slt i32 %49, 16
  br i1 %50, label %51, label %65

51:                                               ; preds = %48
  %52 = load ptr, ptr %4, align 8, !tbaa !29
  %53 = getelementptr inbounds nuw %struct.DVDSubtitleContext, ptr %52, i32 0, i32 1
  %54 = load i32, ptr %6, align 4, !tbaa !34
  %55 = sext i32 %54 to i64
  %56 = getelementptr inbounds [16 x i32], ptr %53, i64 0, i64 %55
  %57 = load i32, ptr %56, align 4, !tbaa !34
  %58 = and i32 %57, 16777215
  %59 = load i32, ptr %6, align 4, !tbaa !34
  %60 = icmp slt i32 %59, 15
  %61 = select i1 %60, i32 44, i32 10
  call void (ptr, ptr, ...) @av_bprintf(ptr noundef %5, ptr noundef @.str.11, i32 noundef %58, i32 noundef %61)
  br label %62

62:                                               ; preds = %51
  %63 = load i32, ptr %6, align 4, !tbaa !34
  %64 = add nsw i32 %63, 1
  store i32 %64, ptr %6, align 4, !tbaa !34
  br label %48, !llvm.loop !35

65:                                               ; preds = %48
  %66 = load ptr, ptr %3, align 8, !tbaa !4
  %67 = call i32 @bprint_to_extradata(ptr noundef %66, ptr noundef %5)
  store i32 %67, ptr %7, align 4, !tbaa !34
  %68 = load i32, ptr %7, align 4, !tbaa !34
  %69 = icmp slt i32 %68, 0
  br i1 %69, label %70, label %72

70:                                               ; preds = %65
  %71 = load i32, ptr %7, align 4, !tbaa !34
  store i32 %71, ptr %2, align 4
  store i32 1, ptr %8, align 4
  br label %73

72:                                               ; preds = %65
  store i32 0, ptr %2, align 4
  store i32 1, ptr %8, align 4
  br label %73

73:                                               ; preds = %72, %70
  call void @llvm.lifetime.end.p0(i64 4, ptr %7) #10
  call void @llvm.lifetime.end.p0(i64 4, ptr %6) #10
  call void @llvm.lifetime.end.p0(i64 1024, ptr %5) #10
  call void @llvm.lifetime.end.p0(i64 8, ptr %4) #10
  %74 = load i32, ptr %2, align 4
  ret i32 %74
}