; Function Attrs: cold nounwind optsize uwtable
define internal range(i32 -2147483648, 1) i32 @dvdsub_init(ptr noundef captures(none) %0) #0 {
  %2 = alloca ptr, align 8
  %3 = alloca %struct.AVBPrint, align 8
  %4 = getelementptr inbounds nuw i8, ptr %0, i64 32
  %5 = load ptr, ptr %4, align 8, !tbaa !4
  call void @llvm.lifetime.start.p0(i64 1024, ptr nonnull %3) #8
  %6 = getelementptr inbounds nuw i8, ptr %5, i64 72
  %7 = load ptr, ptr %6, align 8, !tbaa !27
  %.not = icmp eq ptr %7, null
  %8 = getelementptr inbounds nuw i8, ptr %5, i64 8
  br i1 %.not, label %10, label %9

9:                                                ; preds = %1
  tail call void @ff_dvdsub_parse_palette(ptr noundef nonnull %8, ptr noundef nonnull %7) #8
  br label %11

10:                                               ; preds = %1
  tail call void @llvm.memcpy.p0.p0.i64(ptr noundef nonnull align 8 dereferenceable(64) %8, ptr noundef nonnull align 16 dereferenceable(64) @dvdsub_init.default_palette, i64 64, i1 false)
  br label %11

11:                                               ; preds = %10, %9
  call void @av_bprint_init(ptr noundef nonnull %3, i32 noundef 0, i32 noundef 1) #8
  %12 = getelementptr inbounds nuw i8, ptr %0, i64 112
  %13 = load i32, ptr %12, align 8, !tbaa !29
  %.not22 = icmp eq i32 %13, 0
  br i1 %.not22, label %18, label %14

14:                                               ; preds = %11
  %15 = getelementptr inbounds nuw i8, ptr %0, i64 116
  %16 = load i32, ptr %15, align 4, !tbaa !30
  %.not23 = icmp eq i32 %16, 0
  br i1 %.not23, label %18, label %17

17:                                               ; preds = %14
  call void (ptr, ptr, ...) @av_bprintf(ptr noundef nonnull %3, ptr noundef nonnull @.str.9, i32 noundef %13, i32 noundef %16) #8
  br label %18

18:                                               ; preds = %17, %14, %11
  call void (ptr, ptr, ...) @av_bprintf(ptr noundef nonnull %3, ptr noundef nonnull @.str.10) #8
  %19 = getelementptr inbounds nuw i8, ptr %5, i64 8
  br label %20

20:                                               ; preds = %18, %20
  %indvars.iv = phi i64 [ 0, %18 ], [ %indvars.iv.next, %20 ]
  %21 = getelementptr inbounds nuw [16 x i32], ptr %19, i64 0, i64 %indvars.iv
  %22 = load i32, ptr %21, align 4, !tbaa !31
  %23 = and i32 %22, 16777215
  %.not24 = icmp eq i64 %indvars.iv, 15
  %24 = select i1 %.not24, i32 10, i32 44
  call void (ptr, ptr, ...) @av_bprintf(ptr noundef nonnull %3, ptr noundef nonnull @.str.11, i32 noundef %23, i32 noundef %24) #8
  %indvars.iv.next = add nuw nsw i64 %indvars.iv, 1
  %exitcond.not = icmp eq i64 %indvars.iv.next, 16
  br i1 %exitcond.not, label %25, label %20, !llvm.loop !32

25:                                               ; preds = %20
  call void @llvm.lifetime.start.p0(i64 8, ptr nonnull %2) #8
  %26 = call i32 @av_bprint_finalize(ptr noundef nonnull %3, ptr noundef nonnull %2) #8
  %27 = icmp slt i32 %26, 0
  br i1 %27, label %35, label %28

28:                                               ; preds = %25
  %29 = getelementptr inbounds nuw i8, ptr %3, i64 8
  %.val.i = load i32, ptr %29, align 8, !tbaa !34
  %30 = getelementptr inbounds nuw i8, ptr %3, i64 12
  %.val8.i = load i32, ptr %30, align 4, !tbaa !36
  %.not.i = icmp ult i32 %.val.i, %.val8.i
  %31 = load ptr, ptr %2, align 8, !tbaa !37
  br i1 %.not.i, label %bprint_to_extradata.exit, label %32

32:                                               ; preds = %28
  call void @av_free(ptr noundef %31) #8
  br label %35

bprint_to_extradata.exit:                         ; preds = %28
  %33 = getelementptr inbounds nuw i8, ptr %0, i64 72
  store ptr %31, ptr %33, align 8, !tbaa !38
  %34 = getelementptr inbounds nuw i8, ptr %0, i64 80
  store i32 %.val.i, ptr %34, align 8, !tbaa !39
  br label %35

35:                                               ; preds = %25, %32, %bprint_to_extradata.exit
  %36 = phi i32 [ 0, %bprint_to_extradata.exit ], [ %26, %25 ], [ -12, %32 ]
  call void @llvm.lifetime.end.p0(i64 8, ptr nonnull %2) #8
  call void @llvm.lifetime.end.p0(i64 1024, ptr nonnull %3) #8
  ret i32 %36
}